target datalayout = "e-m:e-p270:32:32-p271:32:32-p272:64:64-i64:64-i128:128-f80:128-n8:16:32:64-S128"
target triple = "x86_64-pc-linux-gnu"

%struct.pmix_pointer_array_t = type { %struct.pmix_object_t, i32, i32, i32, i32, i32, ptr, ptr }
%struct.pmix_object_t = type { %union.pthread_mutex_t, ptr, i32, %struct.pmix_tma }
%union.pthread_mutex_t = type { %struct.__pthread_mutex_s }
%struct.__pthread_mutex_s = type { i32, i32, i32, i32, i32, i16, i16, %struct.__pthread_internal_list }
%struct.__pthread_internal_list = type { ptr, ptr }
%struct.pmix_tma = type { ptr, ptr, ptr, ptr, ptr, ptr, ptr, ptr }

; Function Attrs: inlinehint nounwind uwtable
define internal void @pmix_tma_free(ptr noundef %0, ptr noundef %1) #2 {
  %3 = alloca ptr, align 8
  %4 = alloca ptr, align 8
  store ptr %0, ptr %3, align 8, !tbaa !21
  store ptr %1, ptr %4, align 8, !tbaa !30
  %5 = load ptr, ptr %3, align 8, !tbaa !21
  %6 = icmp ne ptr null, %5
  br i1 %6, label %7, label %13

7:                                                ; preds = %2
  %8 = load ptr, ptr %3, align 8, !tbaa !21
  %9 = getelementptr inbounds nuw %struct.pmix_tma, ptr %8, i32 0, i32 5
  %10 = load ptr, ptr %9, align 8, !tbaa !31
  %11 = load ptr, ptr %3, align 8, !tbaa !21
  %12 = load ptr, ptr %4, align 8, !tbaa !30
  call void %10(ptr noundef %11, ptr noundef %12)
  br label %15

13:                                               ; preds = %2
  %14 = load ptr, ptr %4, align 8, !tbaa !30
  call void @free(ptr noundef %14) #7
  br label %15

15:                                               ; preds = %13, %7
  ret void
}

; Function Attrs: inlinehint nounwind uwtable
define internal ptr @pmix_obj_get_tma(ptr noundef %0) #2 {
  %2 = alloca ptr, align 8
  %3 = alloca ptr, align 8
  store ptr %0, ptr %3, align 8, !tbaa !26
  %4 = load ptr, ptr %3, align 8, !tbaa !26
  %5 = getelementptr inbounds nuw %struct.pmix_object_t, ptr %4, i32 0, i32 3
  %6 = getelementptr inbounds nuw %struct.pmix_tma, ptr %5, i32 0, i32 0
  %7 = load ptr, ptr %6, align 8, !tbaa !28
  %8 = icmp ne ptr %7, null
  br i1 %8, label %9, label %12

9:                                                ; preds = %1
  %10 = load ptr, ptr %3, align 8, !tbaa !26
  %11 = getelementptr inbounds nuw %struct.pmix_object_t, ptr %10, i32 0, i32 3
  store ptr %11, ptr %2, align 8
  br label %13

12:                                               ; preds = %1
  store ptr null, ptr %2, align 8
  br label %13

13:                                               ; preds = %12, %9
  %14 = load ptr, ptr %2, align 8
  ret ptr %14
}

; Function Attrs: nounwind uwtable
define internal void @pmix_pointer_array_destruct(ptr noundef %0) #0 {
  %2 = alloca ptr, align 8
  %3 = alloca ptr, align 8
  store ptr %0, ptr %2, align 8, !tbaa !3
  call void @llvm.lifetime.start.p0(i64 8, ptr %3) #7
  %4 = load ptr, ptr %2, align 8, !tbaa !3
  %5 = getelementptr inbounds nuw %struct.pmix_pointer_array_t, ptr %4, i32 0, i32 0
  %6 = call ptr @pmix_obj_get_tma(ptr noundef %5)
  store ptr %6, ptr %3, align 8, !tbaa !21
  %7 = load ptr, ptr %2, align 8, !tbaa !3
  %8 = getelementptr inbounds nuw %struct.pmix_pointer_array_t, ptr %7, i32 0, i32 6
  %9 = load ptr, ptr %8, align 8, !tbaa !19
  %10 = icmp ne ptr null, %9
  br i1 %10, label %11, label %18

11:                                               ; preds = %1
  %12 = load ptr, ptr %3, align 8, !tbaa !21
  %13 = load ptr, ptr %2, align 8, !tbaa !3
  %14 = getelementptr inbounds nuw %struct.pmix_pointer_array_t, ptr %13, i32 0, i32 6
  %15 = load ptr, ptr %14, align 8, !tbaa !19
  call void @pmix_tma_free(ptr noundef %12, ptr noundef %15)
  %16 = load ptr, ptr %2, align 8, !tbaa !3
  %17 = getelementptr inbounds nuw %struct.pmix_pointer_array_t, ptr %16, i32 0, i32 6
  store ptr null, ptr %17, align 8, !tbaa !19
  br label %18

18:                                               ; preds = %11, %1
  %19 = load ptr, ptr %2, align 8, !tbaa !3
  %20 = getelementptr inbounds nuw %struct.pmix_pointer_array_t, ptr %19, i32 0, i32 7
  %21 = load ptr, ptr %20, align 8, !tbaa !20
  %22 = icmp ne ptr null, %21
  br i1 %22, label %23, label %30

23:                                               ; preds = %18
  %24 = load ptr, ptr %3, align 8, !tbaa !21
  %25 = load ptr, ptr %2, align 8, !tbaa !3
  %26 = getelementptr inbounds nuw %struct.pmix_pointer_array_t, ptr %25, i32 0, i32 7
  %27 = load ptr, ptr %26, align 8, !tbaa !20
  call void @pmix_tma_free(ptr noundef %24, ptr noundef %27)
  %28 = load ptr, ptr %2, align 8, !tbaa !3
  %29 = getelementptr inbounds nuw %struct.pmix_pointer_array_t, ptr %28, i32 0, i32 7
  store ptr null, ptr %29, align 8, !tbaa !20
  br label %30

30:                                               ; preds = %23, %18
  %31 = load ptr, ptr %2, align 8, !tbaa !3
  %32 = getelementptr inbounds nuw %struct.pmix_pointer_array_t, ptr %31, i32 0, i32 3
  store i32 0, ptr %32, align 8, !tbaa !16
  call void @llvm.lifetime.end.p0(i64 8, ptr %3) #7
  ret void
}