; Function Attrs: nounwind uwtable
define internal void @pmix_pointer_array_destruct(ptr noundef %0) #1 {
  %2 = getelementptr inbounds nuw i8, ptr %0, i64 56
  %3 = load ptr, ptr %2, align 8, !tbaa !17
  %.not.i = icmp eq ptr %3, null
  %4 = getelementptr inbounds nuw i8, ptr %0, i64 144
  %5 = load ptr, ptr %4, align 8, !tbaa !18
  %.not = icmp eq ptr %5, null
  br i1 %.not, label %11, label %6

6:                                                ; preds = %1
  br i1 %.not.i, label %10, label %7

7:                                                ; preds = %6
  %8 = getelementptr inbounds nuw i8, ptr %0, i64 96
  %9 = load ptr, ptr %8, align 8, !tbaa !19
  tail call void %9(ptr noundef nonnull %2, ptr noundef nonnull %5) #6
  br label %pmix_tma_free.exit

10:                                               ; preds = %6
  tail call void @free(ptr noundef nonnull %5) #6
  br label %pmix_tma_free.exit

pmix_tma_free.exit:                               ; preds = %7, %10
  store ptr null, ptr %4, align 8, !tbaa !18
  br label %11

11:                                               ; preds = %pmix_tma_free.exit, %1
  %12 = getelementptr inbounds nuw i8, ptr %0, i64 152
  %13 = load ptr, ptr %12, align 8, !tbaa !20
  %.not11 = icmp eq ptr %13, null
  br i1 %.not11, label %19, label %14

14:                                               ; preds = %11
  br i1 %.not.i, label %18, label %15

15:                                               ; preds = %14
  %16 = getelementptr inbounds nuw i8, ptr %0, i64 96
  %17 = load ptr, ptr %16, align 8, !tbaa !19
  tail call void %17(ptr noundef nonnull %2, ptr noundef nonnull %13) #6
  br label %pmix_tma_free.exit14

18:                                               ; preds = %14
  tail call void @free(ptr noundef nonnull %13) #6
  br label %pmix_tma_free.exit14

pmix_tma_free.exit14:                             ; preds = %15, %18
  store ptr null, ptr %12, align 8, !tbaa !20
  br label %19

19:                                               ; preds = %pmix_tma_free.exit14, %11
  %20 = getelementptr inbounds nuw i8, ptr %0, i64 128
  store i32 0, ptr %20, align 8, !tbaa !14
  ret void
}